; Function Attrs: inlinehint mustprogress nofree norecurse nosync nounwind willreturn memory(none) uwtable
define internal fastcc noundef nonnull ptr @collprovider_name(i8 noundef signext %0) unnamed_addr #7 {
  switch i8 %0, label %4 [
    i8 98, label %5
    i8 105, label %2
    i8 99, label %3
  ]

2:                                                ; preds = %1
  br label %5

3:                                                ; preds = %1
  br label %5

4:                                                ; preds = %1
  br label %5

5:                                                ; preds = %1, %4, %3, %2
  %.0 = phi ptr [ @.str.108, %4 ], [ @.str.28, %3 ], [ @.str.27, %2 ], [ @.str.26, %1 ]
  ret ptr %.0
}